; ModuleID = 'source-C-CXX/36/1046.cpp'
source_filename = "source-C-CXX/36/1046.cpp"
target datalayout = "e-m:e-p270:32:32-p271:32:32-p272:64:64-i64:64-f80:128-n8:16:32:64-S128"
target triple = "x86_64-pc-linux-gnu"

%"class.std::ios_base::Init" = type { i8 }
%"class.std::basic_istream" = type { i32 (...)**, i64, %"class.std::basic_ios" }
%"class.std::basic_ios" = type { %"class.std::ios_base", %"class.std::basic_ostream"*, i8, i8, %"class.std::basic_streambuf"*, %"class.std::ctype"*, %"class.std::num_put"*, %"class.std::num_get"* }
%"class.std::ios_base" = type { i32 (...)**, i64, i64, i32, i32, i32, %"struct.std::ios_base::_Callback_list"*, %"struct.std::ios_base::_Words", [8 x %"struct.std::ios_base::_Words"], i32, %"struct.std::ios_base::_Words"*, %"class.std::locale" }
%"struct.std::ios_base::_Callback_list" = type { %"struct.std::ios_base::_Callback_list"*, void (i32, %"class.std::ios_base"*, i32)*, i32, i32 }
%"struct.std::ios_base::_Words" = type { i8*, i64 }
%"class.std::locale" = type { %"class.std::locale::_Impl"* }
%"class.std::locale::_Impl" = type { i32, %"class.std::locale::facet"**, i64, %"class.std::locale::facet"**, i8** }
%"class.std::locale::facet" = type <{ i32 (...)**, i32, [4 x i8] }>
%"class.std::basic_ostream" = type { i32 (...)**, %"class.std::basic_ios" }
%"class.std::basic_streambuf" = type { i32 (...)**, i8*, i8*, i8*, i8*, i8*, i8*, %"class.std::locale" }
%"class.std::ctype" = type <{ %"class.std::locale::facet.base", [4 x i8], %struct.__locale_struct*, i8, [7 x i8], i32*, i32*, i16*, i8, [256 x i8], [256 x i8], i8, [6 x i8] }>
%"class.std::locale::facet.base" = type <{ i32 (...)**, i32 }>
%struct.__locale_struct = type { [13 x %struct.__locale_data*], i16*, i32*, i32*, [13 x i8*] }
%struct.__locale_data = type opaque
%"class.std::num_put" = type { %"class.std::locale::facet.base", [4 x i8] }
%"class.std::num_get" = type { %"class.std::locale::facet.base", [4 x i8] }

@_ZStL8__ioinit = internal global %"class.std::ios_base::Init" zeroinitializer, align 1
@__dso_handle = external hidden global i8
@_ZSt3cin = external global %"class.std::basic_istream", align 8
@_ZSt4cout = external global %"class.std::basic_ostream", align 8
@.str = private unnamed_addr constant [3 x i8] c"no\00", align 1
@llvm.global_ctors = appending global [1 x { i32, void ()*, i8* }] [{ i32, void ()*, i8* } { i32 65535, void ()* @_GLOBAL__sub_I_1046.cpp, i8* null }]

declare void @_ZNSt8ios_base4InitC1Ev(%"class.std::ios_base::Init"* nonnull align 1 dereferenceable(1)) unnamed_addr #0

; Function Attrs: nounwind
declare void @_ZNSt8ios_base4InitD1Ev(%"class.std::ios_base::Init"* nonnull align 1 dereferenceable(1)) unnamed_addr #1

; Function Attrs: nofree nounwind
declare i32 @__cxa_atexit(void (i8*)*, i8*, i8*) local_unnamed_addr #2

; Function Attrs: mustprogress norecurse sspstrong uwtable
define dso_local i32 @main() local_unnamed_addr #3 {
  %1 = alloca i8, align 1
  %2 = alloca i32, align 4
  %3 = alloca [100005 x i8], align 16
  %4 = bitcast i32* %2 to i8*
  call void @llvm.lifetime.start.p0i8(i64 4, i8* nonnull %4) #7
  %5 = call nonnull align 8 dereferenceable(16) %"class.std::basic_istream"* @_ZNSirsERi(%"class.std::basic_istream"* nonnull align 8 dereferenceable(16) @_ZSt3cin, i32* nonnull align 4 dereferenceable(4) %2)
  %6 = getelementptr inbounds [100005 x i8], [100005 x i8]* %3, i64 0, i64 0
  call void @llvm.lifetime.start.p0i8(i64 100005, i8* nonnull %6) #7
  %7 = load i32, i32* %2, align 4, !tbaa !5
  %8 = icmp slt i32 %7, 1
  br i1 %8, label %102, label %9

9:                                                ; preds = %0, %97
  %10 = phi i32 [ %98, %97 ], [ 1, %0 ]
  %11 = phi i32 [ %99, %97 ], [ 1, %0 ]
  call void @_ZSt17__istream_extractRSiPcl(%"class.std::basic_istream"* nonnull align 8 dereferenceable(16) @_ZSt3cin, i8* nonnull %6, i64 100005)
  %12 = load i8, i8* %6, align 16
  %13 = icmp eq i8 %12, 0
  br i1 %13, label %63, label %14

14:                                               ; preds = %9, %58
  %15 = phi i64 [ %59, %58 ], [ 0, %9 ]
  %16 = phi i8 [ %61, %58 ], [ %12, %9 ]
  br label %21

17:                                               ; preds = %21
  %18 = getelementptr inbounds [100005 x i8], [100005 x i8]* %3, i64 0, i64 %27
  %19 = load i8, i8* %18, align 1, !tbaa !9
  %20 = icmp eq i8 %19, 0
  br i1 %20, label %28, label %21, !llvm.loop !10

21:                                               ; preds = %14, %17
  %22 = phi i64 [ 0, %14 ], [ %27, %17 ]
  %23 = phi i8 [ %12, %14 ], [ %19, %17 ]
  %24 = icmp ne i64 %15, %22
  %25 = icmp eq i8 %16, %23
  %26 = select i1 %24, i1 %25, i1 false
  %27 = add nuw i64 %22, 1
  br i1 %26, label %58, label %17

28:                                               ; preds = %17
  call void @llvm.lifetime.start.p0i8(i64 1, i8* nonnull %1)
  store i8 %16, i8* %1, align 1, !tbaa !9
  %29 = call nonnull align 8 dereferenceable(8) %"class.std::basic_ostream"* @_ZSt16__ostream_insertIcSt11char_traitsIcEERSt13basic_ostreamIT_T0_ES6_PKS3_l(%"class.std::basic_ostream"* nonnull align 8 dereferenceable(8) @_ZSt4cout, i8* nonnull %1, i64 1)
  call void @llvm.lifetime.end.p0i8(i64 1, i8* nonnull %1)
  %30 = bitcast %"class.std::basic_ostream"* %29 to i8**
  %31 = load i8*, i8** %30, align 8, !tbaa !12
  %32 = getelementptr i8, i8* %31, i64 -24
  %33 = bitcast i8* %32 to i64*
  %34 = load i64, i64* %33, align 8
  %35 = bitcast %"class.std::basic_ostream"* %29 to i8*
  %36 = add nsw i64 %34, 240
  %37 = getelementptr inbounds i8, i8* %35, i64 %36
  %38 = bitcast i8* %37 to %"class.std::ctype"**
  %39 = load %"class.std::ctype"*, %"class.std::ctype"** %38, align 8, !tbaa !14
  %40 = icmp eq %"class.std::ctype"* %39, null
  br i1 %40, label %41, label %42

41:                                               ; preds = %28
  call void @_ZSt16__throw_bad_castv() #8
  unreachable

42:                                               ; preds = %28
  %43 = getelementptr inbounds %"class.std::ctype", %"class.std::ctype"* %39, i64 0, i32 8
  %44 = load i8, i8* %43, align 8, !tbaa !18
  %45 = icmp eq i8 %44, 0
  br i1 %45, label %49, label %46

46:                                               ; preds = %42
  %47 = getelementptr inbounds %"class.std::ctype", %"class.std::ctype"* %39, i64 0, i32 9, i64 10
  %48 = load i8, i8* %47, align 1, !tbaa !9
  br label %55

49:                                               ; preds = %42
  call void @_ZNKSt5ctypeIcE13_M_widen_initEv(%"class.std::ctype"* nonnull align 8 dereferenceable(570) %39)
  %50 = bitcast %"class.std::ctype"* %39 to i8 (%"class.std::ctype"*, i8)***
  %51 = load i8 (%"class.std::ctype"*, i8)**, i8 (%"class.std::ctype"*, i8)*** %50, align 8, !tbaa !12
  %52 = getelementptr inbounds i8 (%"class.std::ctype"*, i8)*, i8 (%"class.std::ctype"*, i8)** %51, i64 6
  %53 = load i8 (%"class.std::ctype"*, i8)*, i8 (%"class.std::ctype"*, i8)** %52, align 8
  %54 = call signext i8 %53(%"class.std::ctype"* nonnull align 8 dereferenceable(570) %39, i8 signext 10)
  br label %55

55:                                               ; preds = %49, %46
  %56 = phi i8 [ %48, %46 ], [ %54, %49 ]
  %57 = call nonnull align 8 dereferenceable(8) %"class.std::basic_ostream"* @_ZNSo3putEc(%"class.std::basic_ostream"* nonnull align 8 dereferenceable(8) %29, i8 signext %56)
  br label %93

58:                                               ; preds = %21
  %59 = add nuw i64 %15, 1
  %60 = getelementptr inbounds [100005 x i8], [100005 x i8]* %3, i64 0, i64 %59
  %61 = load i8, i8* %60, align 1, !tbaa !9
  %62 = icmp eq i8 %61, 0
  br i1 %62, label %65, label %14, !llvm.loop !20

63:                                               ; preds = %9
  %64 = icmp eq i32 %10, 0
  br i1 %64, label %65, label %97

65:                                               ; preds = %58, %63
  %66 = call nonnull align 8 dereferenceable(8) %"class.std::basic_ostream"* @_ZSt16__ostream_insertIcSt11char_traitsIcEERSt13basic_ostreamIT_T0_ES6_PKS3_l(%"class.std::basic_ostream"* nonnull align 8 dereferenceable(8) @_ZSt4cout, i8* nonnull getelementptr inbounds ([3 x i8], [3 x i8]* @.str, i64 0, i64 0), i64 2)
  %67 = load i8*, i8** bitcast (%"class.std::basic_ostream"* @_ZSt4cout to i8**), align 8, !tbaa !12
  %68 = getelementptr i8, i8* %67, i64 -24
  %69 = bitcast i8* %68 to i64*
  %70 = load i64, i64* %69, align 8
  %71 = add nsw i64 %70, 240
  %72 = getelementptr inbounds i8, i8* bitcast (%"class.std::basic_ostream"* @_ZSt4cout to i8*), i64 %71
  %73 = bitcast i8* %72 to %"class.std::ctype"**
  %74 = load %"class.std::ctype"*, %"class.std::ctype"** %73, align 8, !tbaa !14
  %75 = icmp eq %"class.std::ctype"* %74, null
  br i1 %75, label %76, label %77

76:                                               ; preds = %65
  call void @_ZSt16__throw_bad_castv() #8
  unreachable

77:                                               ; preds = %65
  %78 = getelementptr inbounds %"class.std::ctype", %"class.std::ctype"* %74, i64 0, i32 8
  %79 = load i8, i8* %78, align 8, !tbaa !18
  %80 = icmp eq i8 %79, 0
  br i1 %80, label %84, label %81

81:                                               ; preds = %77
  %82 = getelementptr inbounds %"class.std::ctype", %"class.std::ctype"* %74, i64 0, i32 9, i64 10
  %83 = load i8, i8* %82, align 1, !tbaa !9
  br label %90

84:                                               ; preds = %77
  call void @_ZNKSt5ctypeIcE13_M_widen_initEv(%"class.std::ctype"* nonnull align 8 dereferenceable(570) %74)
  %85 = bitcast %"class.std::ctype"* %74 to i8 (%"class.std::ctype"*, i8)***
  %86 = load i8 (%"class.std::ctype"*, i8)**, i8 (%"class.std::ctype"*, i8)*** %85, align 8, !tbaa !12
  %87 = getelementptr inbounds i8 (%"class.std::ctype"*, i8)*, i8 (%"class.std::ctype"*, i8)** %86, i64 6
  %88 = load i8 (%"class.std::ctype"*, i8)*, i8 (%"class.std::ctype"*, i8)** %87, align 8
  %89 = call signext i8 %88(%"class.std::ctype"* nonnull align 8 dereferenceable(570) %74, i8 signext 10)
  br label %90

90:                                               ; preds = %81, %84
  %91 = phi i8 [ %83, %81 ], [ %89, %84 ]
  %92 = call nonnull align 8 dereferenceable(8) %"class.std::basic_ostream"* @_ZNSo3putEc(%"class.std::basic_ostream"* nonnull align 8 dereferenceable(8) @_ZSt4cout, i8 signext %91)
  br label %93

93:                                               ; preds = %90, %55
  %94 = phi %"class.std::basic_ostream"* [ %57, %55 ], [ %92, %90 ]
  %95 = phi i32 [ 1, %55 ], [ 0, %90 ]
  %96 = call nonnull align 8 dereferenceable(8) %"class.std::basic_ostream"* @_ZNSo5flushEv(%"class.std::basic_ostream"* nonnull align 8 dereferenceable(8) %94)
  br label %97

97:                                               ; preds = %93, %63
  %98 = phi i32 [ %10, %63 ], [ %95, %93 ]
  %99 = add nuw nsw i32 %11, 1
  %100 = load i32, i32* %2, align 4, !tbaa !5
  %101 = icmp slt i32 %11, %100
  br i1 %101, label %9, label %102, !llvm.loop !21

102:                                              ; preds = %97, %0
  call void @llvm.lifetime.end.p0i8(i64 100005, i8* nonnull %6) #7
  call void @llvm.lifetime.end.p0i8(i64 4, i8* nonnull %4) #7
  ret i32 0
}

; Function Attrs: argmemonly mustprogress nofree nosync nounwind willreturn
declare void @llvm.lifetime.start.p0i8(i64 immarg, i8* nocapture) #4

declare nonnull align 8 dereferenceable(16) %"class.std::basic_istream"* @_ZNSirsERi(%"class.std::basic_istream"* nonnull align 8 dereferenceable(16), i32* nonnull align 4 dereferenceable(4)) local_unnamed_addr #0

; Function Attrs: argmemonly mustprogress nofree nosync nounwind willreturn
declare void @llvm.lifetime.end.p0i8(i64 immarg, i8* nocapture) #4

declare void @_ZSt17__istream_extractRSiPcl(%"class.std::basic_istream"* nonnull align 8 dereferenceable(16), i8*, i64) local_unnamed_addr #0

declare nonnull align 8 dereferenceable(8) %"class.std::basic_ostream"* @_ZSt16__ostream_insertIcSt11char_traitsIcEERSt13basic_ostreamIT_T0_ES6_PKS3_l(%"class.std::basic_ostream"* nonnull align 8 dereferenceable(8), i8*, i64) local_unnamed_addr #0

declare nonnull align 8 dereferenceable(8) %"class.std::basic_ostream"* @_ZNSo3putEc(%"class.std::basic_ostream"* nonnull align 8 dereferenceable(8), i8 signext) local_unnamed_addr #0

declare nonnull align 8 dereferenceable(8) %"class.std::basic_ostream"* @_ZNSo5flushEv(%"class.std::basic_ostream"* nonnull align 8 dereferenceable(8)) local_unnamed_addr #0

; Function Attrs: noreturn
declare void @_ZSt16__throw_bad_castv() local_unnamed_addr #5

declare void @_ZNKSt5ctypeIcE13_M_widen_initEv(%"class.std::ctype"* nonnull align 8 dereferenceable(570)) local_unnamed_addr #0

; Function Attrs: sspstrong uwtable
define internal void @_GLOBAL__sub_I_1046.cpp() #6 section ".text.startup" {
  tail call void @_ZNSt8ios_base4InitC1Ev(%"class.std::ios_base::Init"* nonnull align 1 dereferenceable(1) @_ZStL8__ioinit)
  %1 = tail call i32 @__cxa_atexit(void (i8*)* bitcast (void (%"class.std::ios_base::Init"*)* @_ZNSt8ios_base4InitD1Ev to void (i8*)*), i8* getelementptr inbounds (%"class.std::ios_base::Init", %"class.std::ios_base::Init"* @_ZStL8__ioinit, i64 0, i32 0), i8* nonnull @__dso_handle) #7
  ret void
}


!llvm.module.flags = !{!0, !1, !2, !3}
!llvm.ident = !{!4}

!0 = !{i32 1, !"wchar_size", i32 4}
!1 = !{i32 7, !"PIC Level", i32 2}
!2 = !{i32 7, !"PIE Level", i32 2}
!3 = !{i32 7, !"uwtable", i32 1}
!4 = !{!"clang version 13.0.0"}
!5 = !{!6, !6, i64 0}
!6 = !{!"int", !7, i64 0}
!7 = !{!"omnipotent char", !8, i64 0}
!8 = !{!"Simple C++ TBAA"}
!9 = !{!7, !7, i64 0}
!10 = distinct !{!10, !11}
!11 = !{!"llvm.loop.mustprogress"}
!12 = !{!13, !13, i64 0}
!13 = !{!"vtable pointer", !8, i64 0}
!14 = !{!15, !16, i64 240}
!15 = !{!"_ZTSSt9basic_iosIcSt11char_traitsIcEE", !16, i64 216, !7, i64 224, !17, i64 225, !16, i64 232, !16, i64 240, !16, i64 248, !16, i64 256}
!16 = !{!"any pointer", !7, i64 0}
!17 = !{!"bool", !7, i64 0}
!18 = !{!19, !7, i64 56}
!19 = !{!"_ZTSSt5ctypeIcE", !16, i64 16, !17, i64 24, !16, i64 32, !16, i64 40, !16, i64 48, !7, i64 56, !7, i64 57, !7, i64 313, !7, i64 569}
!20 = distinct !{!20, !11}
!21 = distinct !{!21, !11}
